; Function Attrs: mustprogress nofree norecurse nosync nounwind willreturn memory(argmem: readwrite) uwtable
define noundef range(i64 -40, 1) i64 @_ZN11duckdb_zstd22ZSTD_DCtx_getParameterEPNS_11ZSTD_DCtx_sENS_15ZSTD_dParameterEPi(ptr noundef readonly captures(none) %0, i32 noundef %1, ptr noundef writeonly captures(none) %2) local_unnamed_addr #7 {
  switch i32 %1, label %28 [
    i32 100, label %4
    i32 1000, label %10
    i32 1001, label %13
    i32 1002, label %16
    i32 1003, label %19
    i32 1004, label %22
    i32 1005, label %25
  ]

4:                                                ; preds = %3
  %5 = getelementptr inbounds nuw i8, ptr %0, i64 30264
  %6 = load i64, ptr %5, align 8, !tbaa !43
  %7 = trunc i64 %6 to i32
  %8 = tail call noundef range(i32 0, 32) i32 @llvm.ctlz.i32(i32 %7, i1 true)
  %9 = xor i32 %8, 31
  br label %.sink.split

10:                                               ; preds = %3
  %11 = getelementptr inbounds nuw i8, ptr %0, i64 30104
  %12 = load i32, ptr %11, align 8, !tbaa !42
  br label %.sink.split

13:                                               ; preds = %3
  %14 = getelementptr inbounds nuw i8, ptr %0, i64 30320
  %15 = load i32, ptr %14, align 8, !tbaa !44
  br label %.sink.split

16:                                               ; preds = %3
  %17 = getelementptr inbounds nuw i8, ptr %0, i64 30108
  %18 = load i32, ptr %17, align 4, !tbaa !45
  br label %.sink.split

19:                                               ; preds = %3
  %20 = getelementptr inbounds nuw i8, ptr %0, i64 30224
  %21 = load i32, ptr %20, align 8, !tbaa !46
  br label %.sink.split

22:                                               ; preds = %3
  %23 = getelementptr inbounds nuw i8, ptr %0, i64 30228
  %24 = load i32, ptr %23, align 4, !tbaa !47
  br label %.sink.split

25:                                               ; preds = %3
  %26 = getelementptr inbounds nuw i8, ptr %0, i64 30232
  %27 = load i32, ptr %26, align 8, !tbaa !48
  br label %.sink.split

.sink.split:                                      ; preds = %4, %10, %13, %16, %19, %22, %25
  %.sink = phi i32 [ %27, %25 ], [ %24, %22 ], [ %21, %19 ], [ %18, %16 ], [ %15, %13 ], [ %12, %10 ], [ %9, %4 ]
  store i32 %.sink, ptr %2, align 4, !tbaa !55
  br label %28

28:                                               ; preds = %.sink.split, %3
  %.0 = phi i64 [ -40, %3 ], [ 0, %.sink.split ]
  ret i64 %.0
}